	.file	"simplesync.c"
	.text
.Ltext0:
	.file 0 "/home/chris/ECE/6th_Semester/OS/os-lab-exer3/sync" "simplesync.c"
	.section	.rodata.str1.8,"aMS",@progbits,1
	.align 8
.LC0:
	.string	"About to increase variable %d times\n"
	.section	.rodata.str1.1,"aMS",@progbits,1
.LC1:
	.string	"lock problem on increasing"
.LC2:
	.string	"unlock problem on increasing"
.LC3:
	.string	"Done increasing variable.\n"
	.text
	.p2align 4
	.globl	increase_fn
	.type	increase_fn, @function
increase_fn:
.LVL0:
.LFB52:
	.file 1 "simplesync.c"
	.loc 1 47 1 view -0
	.cfi_startproc
	.loc 1 47 1 is_stmt 0 view .LVU1
	endbr64
	.loc 1 48 2 is_stmt 1 view .LVU2
	.loc 1 49 2 view .LVU3
	.loc 1 47 1 is_stmt 0 view .LVU4
	pushq	%r15
	.cfi_def_cfa_offset 16
	.cfi_offset 15, -16
.LBB14:
.LBB15:
	.file 2 "/usr/include/x86_64-linux-gnu/bits/stdio2.h"
	.loc 2 105 10 view .LVU5
	movl	$10000000, %ecx
	leaq	.LC0(%rip), %rdx
	xorl	%eax, %eax
.LBE15:
.LBE14:
	.loc 1 47 1 view .LVU6
	pushq	%r14
	.cfi_def_cfa_offset 24
	.cfi_offset 14, -24
.LBB20:
.LBB16:
	.loc 2 105 10 view .LVU7
	movl	$1, %esi
.LBE16:
.LBE20:
.LBB21:
	.loc 1 69 5 view .LVU8
	leaq	.LC1(%rip), %r15
	.loc 1 77 5 view .LVU9
	leaq	.LC2(%rip), %r14
.LBE21:
	.loc 1 47 1 view .LVU10
	pushq	%r13
	.cfi_def_cfa_offset 32
	.cfi_offset 13, -32
	leaq	mutex(%rip), %r13
	pushq	%r12
	.cfi_def_cfa_offset 40
	.cfi_offset 12, -40
	movq	%rdi, %r12
.LVL1:
	.loc 1 50 2 is_stmt 1 view .LVU11
.LBB22:
.LBI14:
	.loc 2 103 1 view .LVU12
.LBB17:
	.loc 2 105 3 view .LVU13
.LBE17:
.LBE22:
	.loc 1 47 1 is_stmt 0 view .LVU14
	pushq	%rbp
	.cfi_def_cfa_offset 48
	.cfi_offset 6, -48
.LBB23:
.LBB18:
	.loc 2 105 10 view .LVU15
	movl	$10000000, %ebp
.LBE18:
.LBE23:
	.loc 1 47 1 view .LVU16
	pushq	%rbx
	.cfi_def_cfa_offset 56
	.cfi_offset 3, -56
	subq	$8, %rsp
	.cfi_def_cfa_offset 64
.LBB24:
.LBB19:
	.loc 2 105 10 view .LVU17
	movq	stderr(%rip), %rdi
.LVL2:
	.loc 2 105 10 view .LVU18
	call	__fprintf_chk@PLT
.LVL3:
	.loc 2 105 10 view .LVU19
.LBE19:
.LBE24:
	.loc 1 51 2 is_stmt 1 view .LVU20
	.loc 1 51 16 view .LVU21
	jmp	.L4
.LVL4:
	.p2align 4,,10
	.p2align 3
.L2:
.LBB25:
	.loc 1 69 5 discriminator 1 view .LVU22
	.loc 1 72 4 discriminator 1 view .LVU23
	.loc 1 72 7 is_stmt 0 discriminator 1 view .LVU24
	movl	(%r12), %eax
	.loc 1 74 14 discriminator 1 view .LVU25
	movq	%r13, %rdi
	.loc 1 72 4 discriminator 1 view .LVU26
	addl	$1, %eax
	movl	%eax, (%r12)
	.loc 1 74 4 is_stmt 1 discriminator 1 view .LVU27
	.loc 1 74 14 is_stmt 0 discriminator 1 view .LVU28
	call	pthread_mutex_unlock@PLT
.LVL5:
	movl	%eax, %ebx
.LVL6:
	.loc 1 75 4 is_stmt 1 discriminator 1 view .LVU29
	.loc 1 75 7 is_stmt 0 discriminator 1 view .LVU30
	testl	%eax, %eax
	jne	.L14
	.loc 1 77 5 is_stmt 1 discriminator 1 view .LVU31
.LBE25:
	.loc 1 51 22 discriminator 1 view .LVU32
.LVL7:
	.loc 1 51 16 discriminator 1 view .LVU33
	subl	$1, %ebp
.LVL8:
	.loc 1 51 16 is_stmt 0 discriminator 1 view .LVU34
	je	.L15
.LVL9:
.L4:
	.loc 1 54 3 is_stmt 1 view .LVU35
.LBB26:
	.loc 1 65 4 view .LVU36
	.loc 1 66 4 view .LVU37
	.loc 1 66 14 is_stmt 0 view .LVU38
	movq	%r13, %rdi
	call	pthread_mutex_lock@PLT
.LVL10:
	movl	%eax, %ebx
.LVL11:
	.loc 1 67 4 is_stmt 1 view .LVU39
	.loc 1 67 7 is_stmt 0 view .LVU40
	testl	%eax, %eax
	je	.L2
	.loc 1 69 5 is_stmt 1 view .LVU41
	.loc 1 69 5 view .LVU42
	call	__errno_location@PLT
.LVL12:
	.loc 1 69 5 is_stmt 0 view .LVU43
	movq	%r15, %rdi
	movl	%ebx, (%rax)
	.loc 1 69 5 is_stmt 1 view .LVU44
	call	perror@PLT
.LVL13:
	jmp	.L2
.LVL14:
	.p2align 4,,10
	.p2align 3
.L14:
	.loc 1 77 5 view .LVU45
	.loc 1 77 5 view .LVU46
	call	__errno_location@PLT
.LVL15:
	.loc 1 77 5 is_stmt 0 view .LVU47
	movq	%r14, %rdi
	movl	%ebx, (%rax)
	.loc 1 77 5 is_stmt 1 view .LVU48
	call	perror@PLT
.LVL16:
	.loc 1 77 5 view .LVU49
.LBE26:
	.loc 1 51 22 view .LVU50
	.loc 1 51 16 view .LVU51
	subl	$1, %ebp
.LVL17:
	.loc 1 51 16 is_stmt 0 view .LVU52
	jne	.L4
.LVL18:
.L15:
	.loc 1 81 2 is_stmt 1 view .LVU53
.LBB27:
.LBI27:
	.loc 2 103 1 view .LVU54
.LBB28:
	.loc 2 105 3 view .LVU55
	.loc 2 105 10 is_stmt 0 view .LVU56
	movq	stderr(%rip), %rcx
	movl	$26, %edx
	movl	$1, %esi
	leaq	.LC3(%rip), %rdi
	call	fwrite@PLT
.LVL19:
	.loc 2 105 10 view .LVU57
.LBE28:
.LBE27:
	.loc 1 83 2 is_stmt 1 view .LVU58
	.loc 1 84 1 is_stmt 0 view .LVU59
	addq	$8, %rsp
	.cfi_def_cfa_offset 56
	xorl	%eax, %eax
	popq	%rbx
	.cfi_def_cfa_offset 48
.LVL20:
	.loc 1 84 1 view .LVU60
	popq	%rbp
	.cfi_def_cfa_offset 40
	popq	%r12
	.cfi_def_cfa_offset 32
.LVL21:
	.loc 1 84 1 view .LVU61
	popq	%r13
	.cfi_def_cfa_offset 24
	popq	%r14
	.cfi_def_cfa_offset 16
	popq	%r15
	.cfi_def_cfa_offset 8
	ret
	.cfi_endproc
.LFE52:
	.size	increase_fn, .-increase_fn
	.section	.rodata.str1.8
	.align 8
.LC4:
	.string	"About to decrease variable %d times\n"
	.section	.rodata.str1.1
.LC5:
	.string	"lock problem on decreasing"
.LC6:
	.string	"unlock problem on decreasing"
.LC7:
	.string	"Done decreasing variable.\n"
	.text
	.p2align 4
	.globl	decrease_fn
	.type	decrease_fn, @function
decrease_fn:
.LVL22:
.LFB53:
	.loc 1 87 1 is_stmt 1 view -0
	.cfi_startproc
	.loc 1 87 1 is_stmt 0 view .LVU63
	endbr64
	.loc 1 88 2 is_stmt 1 view .LVU64
	.loc 1 89 2 view .LVU65
	.loc 1 87 1 is_stmt 0 view .LVU66
	pushq	%r15
	.cfi_def_cfa_offset 16
	.cfi_offset 15, -16
.LBB29:
.LBB30:
	.loc 2 105 10 view .LVU67
	movl	$10000000, %ecx
	leaq	.LC4(%rip), %rdx
	xorl	%eax, %eax
.LBE30:
.LBE29:
	.loc 1 87 1 view .LVU68
	pushq	%r14
	.cfi_def_cfa_offset 24
	.cfi_offset 14, -24
.LBB35:
.LBB31:
	.loc 2 105 10 view .LVU69
	movl	$1, %esi
.LBE31:
.LBE35:
.LBB36:
	.loc 1 109 5 view .LVU70
	leaq	.LC5(%rip), %r15
	.loc 1 117 5 view .LVU71
	leaq	.LC6(%rip), %r14
.LBE36:
	.loc 1 87 1 view .LVU72
	pushq	%r13
	.cfi_def_cfa_offset 32
	.cfi_offset 13, -32
	leaq	mutex(%rip), %r13
	pushq	%r12
	.cfi_def_cfa_offset 40
	.cfi_offset 12, -40
	movq	%rdi, %r12
.LVL23:
	.loc 1 90 2 is_stmt 1 view .LVU73
.LBB37:
.LBI29:
	.loc 2 103 1 view .LVU74
.LBB32:
	.loc 2 105 3 view .LVU75
.LBE32:
.LBE37:
	.loc 1 87 1 is_stmt 0 view .LVU76
	pushq	%rbp
	.cfi_def_cfa_offset 48
	.cfi_offset 6, -48
.LBB38:
.LBB33:
	.loc 2 105 10 view .LVU77
	movl	$10000000, %ebp
.LBE33:
.LBE38:
	.loc 1 87 1 view .LVU78
	pushq	%rbx
	.cfi_def_cfa_offset 56
	.cfi_offset 3, -56
	subq	$8, %rsp
	.cfi_def_cfa_offset 64
.LBB39:
.LBB34:
	.loc 2 105 10 view .LVU79
	movq	stderr(%rip), %rdi
.LVL24:
	.loc 2 105 10 view .LVU80
	call	__fprintf_chk@PLT
.LVL25:
	.loc 2 105 10 view .LVU81
.LBE34:
.LBE39:
	.loc 1 91 2 is_stmt 1 view .LVU82
	.loc 1 91 16 view .LVU83
	jmp	.L19
.LVL26:
	.p2align 4,,10
	.p2align 3
.L17:
.LBB40:
	.loc 1 109 5 discriminator 1 view .LVU84
	.loc 1 112 4 discriminator 1 view .LVU85
	.loc 1 112 7 is_stmt 0 discriminator 1 view .LVU86
	movl	(%r12), %eax
	.loc 1 114 14 discriminator 1 view .LVU87
	movq	%r13, %rdi
	.loc 1 112 4 discriminator 1 view .LVU88
	subl	$1, %eax
	movl	%eax, (%r12)
	.loc 1 114 4 is_stmt 1 discriminator 1 view .LVU89
	.loc 1 114 14 is_stmt 0 discriminator 1 view .LVU90
	call	pthread_mutex_unlock@PLT
.LVL27:
	movl	%eax, %ebx
.LVL28:
	.loc 1 115 4 is_stmt 1 discriminator 1 view .LVU91
	.loc 1 115 7 is_stmt 0 discriminator 1 view .LVU92
	testl	%eax, %eax
	jne	.L28
	.loc 1 117 5 is_stmt 1 discriminator 1 view .LVU93
.LBE40:
	.loc 1 91 22 discriminator 1 view .LVU94
.LVL29:
	.loc 1 91 16 discriminator 1 view .LVU95
	subl	$1, %ebp
.LVL30:
	.loc 1 91 16 is_stmt 0 discriminator 1 view .LVU96
	je	.L29
.LVL31:
.L19:
	.loc 1 94 3 is_stmt 1 view .LVU97
.LBB41:
	.loc 1 105 4 view .LVU98
	.loc 1 106 4 view .LVU99
	.loc 1 106 14 is_stmt 0 view .LVU100
	movq	%r13, %rdi
	call	pthread_mutex_lock@PLT
.LVL32:
	movl	%eax, %ebx
.LVL33:
	.loc 1 107 4 is_stmt 1 view .LVU101
	.loc 1 107 7 is_stmt 0 view .LVU102
	testl	%eax, %eax
	je	.L17
	.loc 1 109 5 is_stmt 1 view .LVU103
	.loc 1 109 5 view .LVU104
	call	__errno_location@PLT
.LVL34:
	.loc 1 109 5 is_stmt 0 view .LVU105
	movq	%r15, %rdi
	movl	%ebx, (%rax)
	.loc 1 109 5 is_stmt 1 view .LVU106
	call	perror@PLT
.LVL35:
	jmp	.L17
.LVL36:
	.p2align 4,,10
	.p2align 3
.L28:
	.loc 1 117 5 view .LVU107
	.loc 1 117 5 view .LVU108
	call	__errno_location@PLT
.LVL37:
	.loc 1 117 5 is_stmt 0 view .LVU109
	movq	%r14, %rdi
	movl	%ebx, (%rax)
	.loc 1 117 5 is_stmt 1 view .LVU110
	call	perror@PLT
.LVL38:
	.loc 1 117 5 view .LVU111
.LBE41:
	.loc 1 91 22 view .LVU112
	.loc 1 91 16 view .LVU113
	subl	$1, %ebp
.LVL39:
	.loc 1 91 16 is_stmt 0 view .LVU114
	jne	.L19
.LVL40:
.L29:
	.loc 1 121 2 is_stmt 1 view .LVU115
.LBB42:
.LBI42:
	.loc 2 103 1 view .LVU116
.LBB43:
	.loc 2 105 3 view .LVU117
	.loc 2 105 10 is_stmt 0 view .LVU118
	movq	stderr(%rip), %rcx
	movl	$26, %edx
	movl	$1, %esi
	leaq	.LC7(%rip), %rdi
	call	fwrite@PLT
.LVL41:
	.loc 2 105 10 view .LVU119
.LBE43:
.LBE42:
	.loc 1 122 2 is_stmt 1 view .LVU120
	.loc 1 123 1 is_stmt 0 view .LVU121
	addq	$8, %rsp
	.cfi_def_cfa_offset 56
	xorl	%eax, %eax
	popq	%rbx
	.cfi_def_cfa_offset 48
.LVL42:
	.loc 1 123 1 view .LVU122
	popq	%rbp
	.cfi_def_cfa_offset 40
	popq	%r12
	.cfi_def_cfa_offset 32
.LVL43:
	.loc 1 123 1 view .LVU123
	popq	%r13
	.cfi_def_cfa_offset 24
	popq	%r14
	.cfi_def_cfa_offset 16
	popq	%r15
	.cfi_def_cfa_offset 8
	ret
	.cfi_endproc
.LFE53:
	.size	decrease_fn, .-decrease_fn
	.section	.rodata.str1.1
.LC8:
	.string	""
.LC9:
	.string	"NOT "
.LC10:
	.string	"pthread_create"
.LC11:
	.string	"pthread_join"
.LC12:
	.string	"%sOK, val = %d.\n"
.LC13:
	.string	"Mutex object not destroyed..\n"
	.section	.text.startup,"ax",@progbits
	.p2align 4
	.globl	main
	.type	main, @function
main:
.LVL44:
.LFB54:
	.loc 1 126 1 is_stmt 1 view -0
	.cfi_startproc
	.loc 1 126 1 is_stmt 0 view .LVU125
	endbr64
	pushq	%r12
	.cfi_def_cfa_offset 16
	.cfi_offset 12, -16
	.loc 1 137 8 view .LVU126
	xorl	%esi, %esi
.LVL45:
	.loc 1 137 8 view .LVU127
	leaq	increase_fn(%rip), %rdx
	.loc 1 126 1 view .LVU128
	pushq	%rbx
	.cfi_def_cfa_offset 24
	.cfi_offset 3, -24
	subq	$40, %rsp
	.cfi_def_cfa_offset 64
	.loc 1 126 1 view .LVU129
	movq	%fs:40, %rax
	movq	%rax, 24(%rsp)
	xorl	%eax, %eax
	.loc 1 127 2 is_stmt 1 view .LVU130
	.loc 1 128 2 view .LVU131
	.loc 1 133 2 view .LVU132
	.loc 1 137 8 is_stmt 0 view .LVU133
	leaq	4(%rsp), %r12
	leaq	8(%rsp), %rdi
.LVL46:
	.loc 1 133 6 view .LVU134
	movl	$0, 4(%rsp)
	.loc 1 137 2 is_stmt 1 view .LVU135
	.loc 1 137 8 is_stmt 0 view .LVU136
	movq	%r12, %rcx
	call	pthread_create@PLT
.LVL47:
	.loc 1 138 2 is_stmt 1 view .LVU137
	.loc 1 138 5 is_stmt 0 view .LVU138
	testl	%eax, %eax
	jne	.L50
	.loc 1 143 2 is_stmt 1 view .LVU139
	.loc 1 143 8 is_stmt 0 view .LVU140
	leaq	16(%rsp), %rdi
	movq	%r12, %rcx
	leaq	decrease_fn(%rip), %rdx
	xorl	%esi, %esi
	call	pthread_create@PLT
.LVL48:
	.loc 1 143 8 view .LVU141
	movl	%eax, %ebx
.LVL49:
	.loc 1 144 2 is_stmt 1 view .LVU142
	.loc 1 144 5 is_stmt 0 view .LVU143
	testl	%eax, %eax
	jne	.L49
	.loc 1 153 2 is_stmt 1 view .LVU144
	.loc 1 153 8 is_stmt 0 view .LVU145
	movq	8(%rsp), %rdi
	xorl	%esi, %esi
	call	pthread_join@PLT
.LVL50:
	.loc 1 153 8 view .LVU146
	movl	%eax, %ebx
.LVL51:
	.loc 1 154 2 is_stmt 1 view .LVU147
	.loc 1 154 5 is_stmt 0 view .LVU148
	testl	%eax, %eax
	jne	.L51
.LVL52:
.L33:
	.loc 1 155 3 is_stmt 1 discriminator 1 view .LVU149
	.loc 1 156 2 discriminator 1 view .LVU150
	.loc 1 156 8 is_stmt 0 discriminator 1 view .LVU151
	movq	16(%rsp), %rdi
	xorl	%esi, %esi
	call	pthread_join@PLT
.LVL53:
	movl	%eax, %ebx
.LVL54:
	.loc 1 157 2 is_stmt 1 discriminator 1 view .LVU152
	.loc 1 157 5 is_stmt 0 discriminator 1 view .LVU153
	testl	%eax, %eax
	jne	.L52
.LVL55:
.L34:
	.loc 1 158 3 is_stmt 1 discriminator 1 view .LVU154
	.loc 1 163 2 discriminator 1 view .LVU155
	.loc 1 163 12 is_stmt 0 discriminator 1 view .LVU156
	movl	4(%rsp), %ecx
	xorl	%r12d, %r12d
	.loc 1 165 2 discriminator 1 view .LVU157
	leaq	.LC9(%rip), %rax
	leaq	.LC8(%rip), %rdx
.LBB44:
.LBB45:
	.loc 2 112 10 discriminator 1 view .LVU158
	leaq	.LC12(%rip), %rsi
	movl	$1, %edi
.LBE45:
.LBE44:
	.loc 1 163 12 discriminator 1 view .LVU159
	testl	%ecx, %ecx
	.loc 1 165 2 discriminator 1 view .LVU160
	cmovne	%rax, %rdx
	.loc 1 163 12 discriminator 1 view .LVU161
	sete	%r12b
.LVL56:
	.loc 1 165 2 is_stmt 1 discriminator 1 view .LVU162
.LBB47:
.LBI44:
	.loc 2 110 1 discriminator 1 view .LVU163
.LBB46:
	.loc 2 112 3 discriminator 1 view .LVU164
	.loc 2 112 10 is_stmt 0 discriminator 1 view .LVU165
	xorl	%eax, %eax
	call	__printf_chk@PLT
.LVL57:
	.loc 2 112 10 discriminator 1 view .LVU166
.LBE46:
.LBE47:
	.loc 1 166 2 is_stmt 1 discriminator 1 view .LVU167
	.loc 1 168 3 discriminator 1 view .LVU168
	.loc 1 168 9 is_stmt 0 discriminator 1 view .LVU169
	leaq	mutex(%rip), %rdi
	call	pthread_mutex_destroy@PLT
.LVL58:
	movl	%eax, %ebx
.LVL59:
	.loc 1 169 3 is_stmt 1 discriminator 1 view .LVU170
	.loc 1 169 6 is_stmt 0 discriminator 1 view .LVU171
	testl	%eax, %eax
	jne	.L53
.LVL60:
.L30:
	.loc 1 175 1 view .LVU172
	movq	24(%rsp), %rax
	subq	%fs:40, %rax
	jne	.L54
	addq	$40, %rsp
	.cfi_remember_state
	.cfi_def_cfa_offset 24
	movl	%r12d, %eax
	popq	%rbx
	.cfi_def_cfa_offset 16
.LVL61:
	.loc 1 175 1 view .LVU173
	popq	%r12
	.cfi_def_cfa_offset 8
.LVL62:
	.loc 1 175 1 view .LVU174
	ret
.LVL63:
.L51:
	.cfi_restore_state
	.loc 1 155 3 is_stmt 1 view .LVU175
	.loc 1 155 3 view .LVU176
	call	__errno_location@PLT
.LVL64:
	.loc 1 155 3 is_stmt 0 view .LVU177
	leaq	.LC11(%rip), %rdi
	movl	%ebx, (%rax)
	.loc 1 155 3 is_stmt 1 view .LVU178
	call	perror@PLT
.LVL65:
	jmp	.L33
.LVL66:
.L53:
	.loc 1 171 4 view .LVU179
	.loc 1 171 4 view .LVU180
	call	__errno_location@PLT
.LVL67:
	.loc 1 171 4 is_stmt 0 view .LVU181
	leaq	.LC13(%rip), %rdi
	movl	%ebx, (%rax)
	.loc 1 171 4 is_stmt 1 view .LVU182
	call	perror@PLT
.LVL68:
	.loc 1 171 4 view .LVU183
	.loc 1 174 2 view .LVU184
	jmp	.L30
.LVL69:
.L52:
	.loc 1 158 3 view .LVU185
	.loc 1 158 3 view .LVU186
	call	__errno_location@PLT
.LVL70:
	.loc 1 158 3 is_stmt 0 view .LVU187
	leaq	.LC11(%rip), %rdi
	movl	%ebx, (%rax)
	.loc 1 158 3 is_stmt 1 view .LVU188
	call	perror@PLT
.LVL71:
	jmp	.L34
.LVL72:
.L50:
	.loc 1 158 3 is_stmt 0 view .LVU189
	movl	%eax, %ebx
	.loc 1 140 3 is_stmt 1 view .LVU190
	.loc 1 140 3 view .LVU191
.LVL73:
.L49:
	.loc 1 146 3 view .LVU192
	.loc 1 146 3 view .LVU193
	call	__errno_location@PLT
.LVL74:
	leaq	.LC10(%rip), %rdi
	movl	%ebx, (%rax)
	.loc 1 146 3 view .LVU194
	call	perror@PLT
.LVL75:
	.loc 1 146 3 view .LVU195
	.loc 1 147 3 view .LVU196
	movl	$1, %edi
	call	exit@PLT
.LVL76:
.L54:
	.loc 1 175 1 is_stmt 0 view .LVU197
	call	__stack_chk_fail@PLT
.LVL77:
	.cfi_endproc
.LFE54:
	.size	main, .-main
	.globl	mutex
	.bss
	.align 32
	.type	mutex, @object
	.size	mutex, 40
mutex:
	.zero	40
	.text
.Letext0:
	.file 3 "/usr/lib/gcc/x86_64-linux-gnu/11/include/stddef.h"
	.file 4 "/usr/include/x86_64-linux-gnu/bits/types.h"
	.file 5 "/usr/include/x86_64-linux-gnu/bits/types/struct_FILE.h"
	.file 6 "/usr/include/x86_64-linux-gnu/bits/types/FILE.h"
	.file 7 "/usr/include/x86_64-linux-gnu/bits/thread-shared-types.h"
	.file 8 "/usr/include/x86_64-linux-gnu/bits/struct_mutex.h"
	.file 9 "/usr/include/x86_64-linux-gnu/bits/pthreadtypes.h"
	.file 10 "/usr/include/stdio.h"
	.file 11 "/usr/include/pthread.h"
	.file 12 "/usr/include/stdlib.h"
	.file 13 "/usr/include/errno.h"
	.file 14 "<built-in>"
	.section	.note.GNU-stack,"",@progbits
	.section	.note.gnu.property,"a"
	.align 8
	.long	1f - 0f
	.long	4f - 1f
	.long	5
0:
	.string	"GNU"
1:
	.align 8
	.long	0xc0000002
	.long	3f - 2f
2:
	.long	0x3
3:
	.align 8
4:
