	.file	"simplesync.c"
	.text
.Ltext0:
	.file 0 "/home/chris/ECE/6th_Semester/OS/os-lab-exer3/sync" "simplesync.c"
	.section	.rodata.str1.8,"aMS",@progbits,1
	.align 8
.LC0:
	.string	"About to increase variable %d times\n"
	.section	.rodata.str1.1,"aMS",@progbits,1
.LC1:
	.string	"Done increasing variable.\n"
	.text
	.p2align 4
	.globl	increase_fn
	.type	increase_fn, @function
increase_fn:
.LVL0:
.LFB52:
	.file 1 "simplesync.c"
	.loc 1 47 1 view -0
	.cfi_startproc
	.loc 1 47 1 is_stmt 0 view .LVU1
	endbr64
	.loc 1 48 2 is_stmt 1 view .LVU2
	.loc 1 49 2 view .LVU3
	.loc 1 47 1 is_stmt 0 view .LVU4
	pushq	%rbx
	.cfi_def_cfa_offset 16
	.cfi_offset 3, -16
	.loc 1 47 1 view .LVU5
	movq	%rdi, %rbx
.LVL1:
	.loc 1 50 2 is_stmt 1 view .LVU6
.LBB12:
.LBI12:
	.file 2 "/usr/include/x86_64-linux-gnu/bits/stdio2.h"
	.loc 2 103 1 view .LVU7
.LBB13:
	.loc 2 105 3 view .LVU8
	.loc 2 105 10 is_stmt 0 view .LVU9
	movq	stderr(%rip), %rdi
.LVL2:
	.loc 2 105 10 view .LVU10
	movl	$10000000, %ecx
	leaq	.LC0(%rip), %rdx
	movl	$1, %esi
	xorl	%eax, %eax
	call	__fprintf_chk@PLT
.LVL3:
	.loc 2 105 10 view .LVU11
.LBE13:
.LBE12:
	.loc 1 51 2 is_stmt 1 view .LVU12
	.loc 1 51 16 view .LVU13
.LBB15:
.LBB14:
	.loc 2 105 10 is_stmt 0 view .LVU14
	movl	$10000000, %eax
.LVL4:
	.p2align 4,,10
	.p2align 3
.L2:
	.loc 2 105 10 view .LVU15
.LBE14:
.LBE15:
	.loc 1 54 3 is_stmt 1 view .LVU16
	.loc 1 59 4 view .LVU17
	lock addl	$1, (%rbx)
	.loc 1 77 5 view .LVU18
	.loc 1 51 22 view .LVU19
.LVL5:
	.loc 1 51 16 view .LVU20
	subl	$1, %eax
.LVL6:
	.loc 1 51 16 is_stmt 0 view .LVU21
	jne	.L2
	.loc 1 81 2 is_stmt 1 view .LVU22
.LVL7:
.LBB16:
.LBI16:
	.loc 2 103 1 view .LVU23
.LBB17:
	.loc 2 105 3 view .LVU24
	.loc 2 105 10 is_stmt 0 view .LVU25
	movq	stderr(%rip), %rcx
	movl	$26, %edx
	movl	$1, %esi
	leaq	.LC1(%rip), %rdi
	call	fwrite@PLT
.LVL8:
	.loc 2 105 10 view .LVU26
.LBE17:
.LBE16:
	.loc 1 83 2 is_stmt 1 view .LVU27
	.loc 1 84 1 is_stmt 0 view .LVU28
	xorl	%eax, %eax
	popq	%rbx
	.cfi_def_cfa_offset 8
.LVL9:
	.loc 1 84 1 view .LVU29
	ret
	.cfi_endproc
.LFE52:
	.size	increase_fn, .-increase_fn
	.section	.rodata.str1.8
	.align 8
.LC2:
	.string	"About to decrease variable %d times\n"
	.section	.rodata.str1.1
.LC3:
	.string	"Done decreasing variable.\n"
	.text
	.p2align 4
	.globl	decrease_fn
	.type	decrease_fn, @function
decrease_fn:
.LVL10:
.LFB53:
	.loc 1 87 1 is_stmt 1 view -0
	.cfi_startproc
	.loc 1 87 1 is_stmt 0 view .LVU31
	endbr64
	.loc 1 88 2 is_stmt 1 view .LVU32
	.loc 1 89 2 view .LVU33
	.loc 1 87 1 is_stmt 0 view .LVU34
	pushq	%rbx
	.cfi_def_cfa_offset 16
	.cfi_offset 3, -16
	.loc 1 87 1 view .LVU35
	movq	%rdi, %rbx
.LVL11:
	.loc 1 90 2 is_stmt 1 view .LVU36
.LBB18:
.LBI18:
	.loc 2 103 1 view .LVU37
.LBB19:
	.loc 2 105 3 view .LVU38
	.loc 2 105 10 is_stmt 0 view .LVU39
	movq	stderr(%rip), %rdi
.LVL12:
	.loc 2 105 10 view .LVU40
	movl	$10000000, %ecx
	leaq	.LC2(%rip), %rdx
	movl	$1, %esi
	xorl	%eax, %eax
	call	__fprintf_chk@PLT
.LVL13:
	.loc 2 105 10 view .LVU41
.LBE19:
.LBE18:
	.loc 1 91 2 is_stmt 1 view .LVU42
	.loc 1 91 16 view .LVU43
.LBB21:
.LBB20:
	.loc 2 105 10 is_stmt 0 view .LVU44
	movl	$10000000, %eax
.LVL14:
	.p2align 4,,10
	.p2align 3
.L7:
	.loc 2 105 10 view .LVU45
.LBE20:
.LBE21:
	.loc 1 94 3 is_stmt 1 view .LVU46
	.loc 1 99 4 view .LVU47
	lock subl	$1, (%rbx)
	.loc 1 117 5 view .LVU48
	.loc 1 91 22 view .LVU49
.LVL15:
	.loc 1 91 16 view .LVU50
	subl	$1, %eax
.LVL16:
	.loc 1 91 16 is_stmt 0 view .LVU51
	jne	.L7
	.loc 1 121 2 is_stmt 1 view .LVU52
.LVL17:
.LBB22:
.LBI22:
	.loc 2 103 1 view .LVU53
.LBB23:
	.loc 2 105 3 view .LVU54
	.loc 2 105 10 is_stmt 0 view .LVU55
	movq	stderr(%rip), %rcx
	movl	$26, %edx
	movl	$1, %esi
	leaq	.LC3(%rip), %rdi
	call	fwrite@PLT
.LVL18:
	.loc 2 105 10 view .LVU56
.LBE23:
.LBE22:
	.loc 1 122 2 is_stmt 1 view .LVU57
	.loc 1 123 1 is_stmt 0 view .LVU58
	xorl	%eax, %eax
	popq	%rbx
	.cfi_def_cfa_offset 8
.LVL19:
	.loc 1 123 1 view .LVU59
	ret
	.cfi_endproc
.LFE53:
	.size	decrease_fn, .-decrease_fn
	.section	.rodata.str1.1
.LC4:
	.string	""
.LC5:
	.string	"NOT "
.LC6:
	.string	"pthread_create"
.LC7:
	.string	"pthread_join"
.LC8:
	.string	"%sOK, val = %d.\n"
	.section	.text.startup,"ax",@progbits
	.p2align 4
	.globl	main
	.type	main, @function
main:
.LVL20:
.LFB54:
	.loc 1 126 1 is_stmt 1 view -0
	.cfi_startproc
	.loc 1 126 1 is_stmt 0 view .LVU61
	endbr64
	pushq	%r12
	.cfi_def_cfa_offset 16
	.cfi_offset 12, -16
	.loc 1 137 8 view .LVU62
	xorl	%esi, %esi
.LVL21:
	.loc 1 137 8 view .LVU63
	leaq	increase_fn(%rip), %rdx
	.loc 1 126 1 view .LVU64
	pushq	%rbx
	.cfi_def_cfa_offset 24
	.cfi_offset 3, -24
	subq	$40, %rsp
	.cfi_def_cfa_offset 64
	.loc 1 126 1 view .LVU65
	movq	%fs:40, %rax
	movq	%rax, 24(%rsp)
	xorl	%eax, %eax
	.loc 1 127 2 is_stmt 1 view .LVU66
	.loc 1 128 2 view .LVU67
	.loc 1 133 2 view .LVU68
	.loc 1 137 8 is_stmt 0 view .LVU69
	leaq	4(%rsp), %r12
	leaq	8(%rsp), %rdi
.LVL22:
	.loc 1 133 6 view .LVU70
	movl	$0, 4(%rsp)
	.loc 1 137 2 is_stmt 1 view .LVU71
	.loc 1 137 8 is_stmt 0 view .LVU72
	movq	%r12, %rcx
	call	pthread_create@PLT
.LVL23:
	.loc 1 138 2 is_stmt 1 view .LVU73
	.loc 1 138 5 is_stmt 0 view .LVU74
	testl	%eax, %eax
	jne	.L26
	.loc 1 143 2 is_stmt 1 view .LVU75
	.loc 1 143 8 is_stmt 0 view .LVU76
	leaq	16(%rsp), %rdi
	movq	%r12, %rcx
	leaq	decrease_fn(%rip), %rdx
	xorl	%esi, %esi
	call	pthread_create@PLT
.LVL24:
	.loc 1 143 8 view .LVU77
	movl	%eax, %ebx
.LVL25:
	.loc 1 144 2 is_stmt 1 view .LVU78
	.loc 1 144 5 is_stmt 0 view .LVU79
	testl	%eax, %eax
	jne	.L25
	.loc 1 153 2 is_stmt 1 view .LVU80
	.loc 1 153 8 is_stmt 0 view .LVU81
	movq	8(%rsp), %rdi
	xorl	%esi, %esi
	call	pthread_join@PLT
.LVL26:
	.loc 1 153 8 view .LVU82
	movl	%eax, %ebx
.LVL27:
	.loc 1 154 2 is_stmt 1 view .LVU83
	.loc 1 154 5 is_stmt 0 view .LVU84
	testl	%eax, %eax
	jne	.L27
.LVL28:
.L13:
	.loc 1 155 3 is_stmt 1 discriminator 1 view .LVU85
	.loc 1 156 2 discriminator 1 view .LVU86
	.loc 1 156 8 is_stmt 0 discriminator 1 view .LVU87
	movq	16(%rsp), %rdi
	xorl	%esi, %esi
	call	pthread_join@PLT
.LVL29:
	movl	%eax, %ebx
.LVL30:
	.loc 1 157 2 is_stmt 1 discriminator 1 view .LVU88
	.loc 1 157 5 is_stmt 0 discriminator 1 view .LVU89
	testl	%eax, %eax
	jne	.L28
.LVL31:
.L14:
	.loc 1 158 3 is_stmt 1 discriminator 1 view .LVU90
	.loc 1 163 2 discriminator 1 view .LVU91
	.loc 1 163 12 is_stmt 0 discriminator 1 view .LVU92
	movl	4(%rsp), %ecx
	xorl	%r12d, %r12d
	.loc 1 165 2 discriminator 1 view .LVU93
	leaq	.LC5(%rip), %rax
	leaq	.LC4(%rip), %rdx
.LBB24:
.LBB25:
	.loc 2 112 10 discriminator 1 view .LVU94
	leaq	.LC8(%rip), %rsi
	movl	$1, %edi
.LBE25:
.LBE24:
	.loc 1 163 12 discriminator 1 view .LVU95
	testl	%ecx, %ecx
	.loc 1 165 2 discriminator 1 view .LVU96
	cmovne	%rax, %rdx
	.loc 1 163 12 discriminator 1 view .LVU97
	sete	%r12b
.LVL32:
	.loc 1 165 2 is_stmt 1 discriminator 1 view .LVU98
.LBB27:
.LBI24:
	.loc 2 110 1 discriminator 1 view .LVU99
.LBB26:
	.loc 2 112 3 discriminator 1 view .LVU100
	.loc 2 112 10 is_stmt 0 discriminator 1 view .LVU101
	xorl	%eax, %eax
	call	__printf_chk@PLT
.LVL33:
	.loc 2 112 10 discriminator 1 view .LVU102
.LBE26:
.LBE27:
	.loc 1 166 2 is_stmt 1 discriminator 1 view .LVU103
	.loc 1 171 4 discriminator 1 view .LVU104
	.loc 1 174 2 discriminator 1 view .LVU105
	.loc 1 175 1 is_stmt 0 discriminator 1 view .LVU106
	movq	24(%rsp), %rax
	subq	%fs:40, %rax
	jne	.L29
	.loc 1 175 1 view .LVU107
	addq	$40, %rsp
	.cfi_remember_state
	.cfi_def_cfa_offset 24
	movl	%r12d, %eax
.LVL34:
	.loc 1 175 1 view .LVU108
	popq	%rbx
	.cfi_def_cfa_offset 16
.LVL35:
	.loc 1 175 1 view .LVU109
	popq	%r12
	.cfi_def_cfa_offset 8
	ret
.LVL36:
.L27:
	.cfi_restore_state
	.loc 1 155 3 is_stmt 1 view .LVU110
	.loc 1 155 3 view .LVU111
	call	__errno_location@PLT
.LVL37:
	.loc 1 155 3 is_stmt 0 view .LVU112
	leaq	.LC7(%rip), %rdi
	movl	%ebx, (%rax)
	.loc 1 155 3 is_stmt 1 view .LVU113
	call	perror@PLT
.LVL38:
	jmp	.L13
.LVL39:
.L28:
	.loc 1 158 3 view .LVU114
	.loc 1 158 3 view .LVU115
	call	__errno_location@PLT
.LVL40:
	.loc 1 158 3 is_stmt 0 view .LVU116
	leaq	.LC7(%rip), %rdi
	movl	%ebx, (%rax)
	.loc 1 158 3 is_stmt 1 view .LVU117
	call	perror@PLT
.LVL41:
	jmp	.L14
.LVL42:
.L26:
	.loc 1 158 3 is_stmt 0 view .LVU118
	movl	%eax, %ebx
	.loc 1 140 3 is_stmt 1 view .LVU119
	.loc 1 140 3 view .LVU120
.LVL43:
.L25:
	.loc 1 146 3 view .LVU121
	.loc 1 146 3 view .LVU122
	call	__errno_location@PLT
.LVL44:
	leaq	.LC6(%rip), %rdi
	movl	%ebx, (%rax)
	.loc 1 146 3 view .LVU123
	call	perror@PLT
.LVL45:
	.loc 1 146 3 view .LVU124
	.loc 1 147 3 view .LVU125
	movl	$1, %edi
	call	exit@PLT
.LVL46:
.L29:
	.loc 1 175 1 is_stmt 0 view .LVU126
	call	__stack_chk_fail@PLT
.LVL47:
	.cfi_endproc
.LFE54:
	.size	main, .-main
	.globl	mutex
	.bss
	.align 32
	.type	mutex, @object
	.size	mutex, 40
mutex:
	.zero	40
	.text
.Letext0:
	.file 3 "/usr/lib/gcc/x86_64-linux-gnu/11/include/stddef.h"
	.file 4 "/usr/include/x86_64-linux-gnu/bits/types.h"
	.file 5 "/usr/include/x86_64-linux-gnu/bits/types/struct_FILE.h"
	.file 6 "/usr/include/x86_64-linux-gnu/bits/types/FILE.h"
	.file 7 "/usr/include/x86_64-linux-gnu/bits/thread-shared-types.h"
	.file 8 "/usr/include/x86_64-linux-gnu/bits/struct_mutex.h"
	.file 9 "/usr/include/x86_64-linux-gnu/bits/pthreadtypes.h"
	.file 10 "/usr/include/stdio.h"
	.file 11 "/usr/include/pthread.h"
	.file 12 "/usr/include/stdlib.h"
	.file 13 "/usr/include/errno.h"
	.file 14 "<built-in>"
	.section	.note.GNU-stack,"",@progbits
	.section	.note.gnu.property,"a"
	.align 8
	.long	1f - 0f
	.long	4f - 1f
	.long	5
0:
	.string	"GNU"
1:
	.align 8
	.long	0xc0000002
	.long	3f - 2f
2:
	.long	0x3
3:
	.align 8
4:
